target datalayout = "e-m:e-p270:32:32-p271:32:32-p272:64:64-i64:64-i128:128-f80:128-n8:16:32:64-S128"
target triple = "x86_64-pc-linux-gnu"

@prev_display_dissector_name = internal global ptr null, align 8
@.str.18 = private unnamed_addr constant [10 x i8] c"\09%s (%s)\0A\00", align 1

; Function Attrs: null_pointer_is_valid sspstrong uwtable
define internal void @display_dissector_table_names(ptr noundef %0, ptr noundef %1, ptr noundef %2) #0 {
  %4 = alloca ptr, align 8
  %5 = alloca ptr, align 8
  %6 = alloca ptr, align 8
  %7 = alloca i32, align 4
  store ptr %0, ptr %4, align 8
  store ptr %1, ptr %5, align 8
  store ptr %2, ptr %6, align 8
  call void @llvm.lifetime.start.p0(i64 4, ptr %7) #6
  %8 = load ptr, ptr %4, align 8
  %9 = call i32 @get_dissector_table_selector_type(ptr noundef %8)
  store i32 %9, ptr %7, align 4
  %10 = load i32, ptr %7, align 4
  switch i32 %10, label %26 [
    i32 4, label %11
    i32 5, label %11
    i32 6, label %11
    i32 7, label %11
    i32 26, label %11
    i32 27, label %11
    i32 28, label %11
    i32 43, label %11
    i32 45, label %11
    i32 0, label %11
  ]

11:                                               ; preds = %3, %3, %3, %3, %3, %3, %3, %3, %3, %3
  %12 = load ptr, ptr @prev_display_dissector_name, align 8
  %13 = icmp eq ptr %12, null
  br i1 %13, label %19, label %14

14:                                               ; preds = %11
  %15 = load ptr, ptr @prev_display_dissector_name, align 8
  %16 = load ptr, ptr %4, align 8
  %17 = call i32 @strcmp(ptr noundef %15, ptr noundef %16) #7
  %18 = icmp ne i32 %17, 0
  br i1 %18, label %19, label %25

19:                                               ; preds = %14, %11
  %20 = load ptr, ptr %6, align 8
  %21 = load ptr, ptr %4, align 8
  %22 = load ptr, ptr %5, align 8
  %23 = call i32 (ptr, i32, ptr, ...) @__fprintf_chk(ptr noundef %20, i32 noundef 2, ptr noundef @.str.18, ptr noundef %21, ptr noundef %22)
  %24 = load ptr, ptr %4, align 8
  store ptr %24, ptr @prev_display_dissector_name, align 8
  br label %25

25:                                               ; preds = %19, %14
  br label %27

26:                                               ; preds = %3
  br label %27

27:                                               ; preds = %26, %25
  call void @llvm.lifetime.end.p0(i64 4, ptr %7) #6
  ret void
}