; Function Attrs: null_pointer_is_valid sspstrong uwtable
define internal void @display_dissector_table_names(ptr noundef %0, ptr noundef %1, ptr noundef %2) #0 {
  %4 = tail call i32 @get_dissector_table_selector_type(ptr noundef %0)
  switch i32 %4, label %12 [
    i32 4, label %5
    i32 5, label %5
    i32 6, label %5
    i32 7, label %5
    i32 26, label %5
    i32 27, label %5
    i32 28, label %5
    i32 43, label %5
    i32 45, label %5
    i32 0, label %5
  ]

5:                                                ; preds = %3, %3, %3, %3, %3, %3, %3, %3, %3, %3
  %6 = load ptr, ptr @prev_display_dissector_name, align 8
  %7 = icmp eq ptr %6, null
  br i1 %7, label %10, label %8

8:                                                ; preds = %5
  %9 = tail call i32 @strcmp(ptr noundef nonnull dereferenceable(1) %6, ptr noundef %0) #7
  %.not = icmp eq i32 %9, 0
  br i1 %.not, label %12, label %10

10:                                               ; preds = %8, %5
  %11 = tail call i32 (ptr, i32, ptr, ...) @__fprintf_chk(ptr noundef %2, i32 noundef 2, ptr noundef nonnull @.str.18, ptr noundef %0, ptr noundef %1)
  store ptr %0, ptr @prev_display_dissector_name, align 8
  br label %12

12:                                               ; preds = %3, %8, %10
  ret void
}